; Function Attrs: mustprogress nounwind uwtable
define hidden void @_Z15VM_Version_initv() local_unnamed_addr #0 {
  %1 = alloca [1024 x i8], align 16
  %2 = alloca %class.LogStream, align 8
  tail call void @_ZN10VM_Version10initializeEv() #6
  %3 = load volatile ptr, ptr getelementptr inbounds (i8, ptr @_ZN16LogTagSetMappingILN6LogTag4typeE105ELS1_28ELS1_0ELS1_0ELS1_0ELS1_0EE7_tagsetE, i64 64), align 8
  %.not = icmp eq ptr %3, null
  br i1 %.not, label %_ZN12ResourceMarkD2Ev.exit, label %4

4:                                                ; preds = %0
  %5 = tail call align 8 ptr @llvm.threadlocal.address.p0(ptr align 8 @_ZN6Thread12_thr_currentE)
  %6 = load ptr, ptr %5, align 8
  %7 = getelementptr inbounds i8, ptr %6, i64 800
  %8 = load ptr, ptr %7, align 8
  %9 = getelementptr inbounds i8, ptr %8, i64 24
  %10 = load ptr, ptr %9, align 8
  %11 = getelementptr inbounds i8, ptr %8, i64 32
  %12 = load ptr, ptr %11, align 8
  %13 = getelementptr inbounds i8, ptr %8, i64 40
  %14 = load ptr, ptr %13, align 8
  %15 = getelementptr inbounds i8, ptr %8, i64 8
  %16 = load i64, ptr %15, align 8
  call void @_ZN12outputStreamC2Eb(ptr noundef nonnull align 8 dereferenceable(56) %2, i1 noundef zeroext false) #6
  store ptr getelementptr inbounds inrange(-16, 40) (i8, ptr @_ZTV17LogStreamImplBase, i64 16), ptr %2, align 8
  %17 = getelementptr inbounds i8, ptr %2, i64 56
  call void @_ZN17LogStreamImplBase10LineBufferC1Ev(ptr noundef nonnull align 8 dereferenceable(88) %17) #6
  %18 = getelementptr inbounds i8, ptr %2, i64 144
  store i32 3, ptr %18, align 8
  %.sroa.21.0..sroa_idx.i.i = getelementptr inbounds i8, ptr %2, i64 152
  store ptr @_ZN16LogTagSetMappingILN6LogTag4typeE105ELS1_28ELS1_0ELS1_0ELS1_0ELS1_0EE7_tagsetE, ptr %.sroa.21.0..sroa_idx.i.i, align 8
  store ptr getelementptr inbounds inrange(-16, 40) (i8, ptr @_ZTV9LogStream, i64 16), ptr %2, align 8
  call void @_ZN2os14print_cpu_infoEP12outputStreamPcm(ptr noundef nonnull %2, ptr noundef nonnull %1, i64 noundef 1024) #6
  call void @_ZN13LogStreamImplI15LogTargetHandleED2Ev(ptr noundef nonnull align 8 dereferenceable(160) %2) #6
  %19 = load ptr, ptr %10, align 8
  %.not.i.i.i.i = icmp eq ptr %19, null
  br i1 %.not.i.i.i.i, label %21, label %20

20:                                               ; preds = %4
  call void @_ZN5Arena17set_size_in_bytesEm(ptr noundef nonnull align 8 dereferenceable(48) %8, i64 noundef %16) #6
  call void @_ZN5Chunk9next_chopEPS_(ptr noundef nonnull %10) #6
  br label %21

21:                                               ; preds = %20, %4
  %22 = load ptr, ptr %11, align 8
  %.not8.i.i.i.i = icmp eq ptr %22, %12
  br i1 %.not8.i.i.i.i, label %_ZN12ResourceMarkD2Ev.exit, label %23

23:                                               ; preds = %21
  store ptr %10, ptr %9, align 8
  store ptr %12, ptr %11, align 8
  store ptr %14, ptr %13, align 8
  br label %_ZN12ResourceMarkD2Ev.exit

_ZN12ResourceMarkD2Ev.exit:                       ; preds = %23, %21, %0
  ret void
}